Certificate:
    Data:
        Version: 3 (0x2)
        Serial Number:
            4d:32:00:c0:76:36:b5:79:fa:ad:bb:f6:ff:f4:7b:c3
        Signature Algorithm: sha256WithRSAEncryption
        Issuer: CN=Easy-RSA CA
        Validity
            Not Before: Mar  9 16:39:43 2025 GMT
            Not After : Jun 12 16:39:43 2027 GMT
        Subject: CN=phoenix
        Subject Public Key Info:
            Public Key Algorithm: rsaEncryption
                RSA Public-Key: (2048 bit)
                Modulus:
                    00:c6:35:2a:d2:a4:b1:ce:71:ca:48:13:1f:fe:be:
                    91:2c:1f:04:a9:10:60:9a:1b:99:0d:ec:78:b7:1c:
                    db:1d:c2:1b:7c:30:39:f7:e2:9b:b0:5a:0b:f9:5a:
                    0d:9e:ff:db:49:7e:60:48:b7:41:63:95:05:6a:92:
                    bf:d8:80:9f:a9:b7:a1:80:ae:00:fb:1a:2a:c9:a5:
                    73:73:65:72:75:23:5e:c2:01:cd:cb:cf:2e:65:7a:
                    b8:eb:e5:d2:5b:71:c7:ca:12:46:b3:01:8a:83:1b:
                    c4:ca:ee:b2:dd:5d:d6:3c:fd:c3:3d:05:40:28:29:
                    b4:57:ce:f0:be:0a:ca:ca:88:1f:a7:0a:4b:c0:5a:
                    d1:7f:45:dc:d1:c4:51:4b:8b:2f:4e:16:7c:96:e9:
                    be:00:2a:e8:91:9d:6e:4d:ad:9c:94:44:60:9b:1e:
                    2e:40:ba:61:82:7f:1d:32:77:f7:47:1b:d3:df:eb:
                    09:51:8d:0e:16:c1:ab:93:15:7d:56:bd:5d:eb:49:
                    79:5c:23:86:3f:60:ba:2a:7d:2e:55:83:79:9b:31:
                    1e:52:d9:41:42:30:33:42:08:76:46:30:9e:20:32:
                    69:e5:82:ab:a8:18:29:f1:b7:a1:a1:4e:bc:42:95:
                    e5:57:3a:c4:c9:9a:5e:c6:c4:6e:7d:bc:41:c5:5d:
                    59:eb
                Exponent: 65537 (0x10001)
        X509v3 extensions:
            X509v3 Basic Constraints: 
                CA:FALSE
            X509v3 Subject Key Identifier: 
                9E:F4:4D:2B:75:FD:C9:3E:06:7F:0C:58:EC:21:12:CC:2C:31:D5:A9
            X509v3 Authority Key Identifier: 
                keyid:72:53:44:E5:8E:B4:8C:1C:8B:60:6C:77:62:C1:4A:9F:3D:CF:50:84
                DirName:/CN=Easy-RSA CA
                serial:10:1A:65:8B:B9:3C:18:1F:D5:30:B0:BA:86:89:4D:2E:7C:48:06:A9

            X509v3 Extended Key Usage: 
                TLS Web Client Authentication
            X509v3 Key Usage: 
                Digital Signature
    Signature Algorithm: sha256WithRSAEncryption
         78:c5:06:df:5c:f4:d0:fc:37:ad:5c:4e:9d:06:f1:2c:5d:08:
         55:3e:7a:e4:ca:4e:32:b9:ce:58:85:dc:57:a4:5b:6c:3c:10:
         4f:d2:ab:b5:8a:2c:c8:cc:6e:cb:ac:82:81:92:59:a7:9a:26:
         49:4c:9a:84:0d:d2:80:3d:d9:eb:ca:85:46:97:ad:cd:d1:76:
         3a:17:a1:1e:cc:63:dc:f6:1f:6a:d8:11:5c:7d:a5:c2:47:84:
         b2:49:ca:97:56:b5:5a:30:85:af:d9:19:58:2c:f8:97:38:9e:
         81:8d:a0:55:78:43:bf:26:d9:5d:31:a0:5b:4e:a4:64:dd:03:
         45:1d:ea:fc:0f:83:aa:61:49:3f:3b:6d:79:4d:78:93:42:51:
         03:6e:3a:98:4d:10:9f:1b:3e:91:a5:3b:d8:87:42:2e:fa:11:
         a6:58:26:06:45:74:da:20:96:1e:73:bd:a5:e4:6f:b0:f1:fe:
         7f:4d:2e:05:91:4e:52:f6:e4:aa:d6:fb:8e:a2:06:3c:94:26:
         27:b3:88:df:b0:7a:5e:b9:e4:cf:e2:f9:9f:79:72:d9:07:ca:
         5c:e2:c6:c7:79:24:cf:78:24:19:f9:88:a4:4e:a8:43:6e:98:
         a2:00:79:e0:b3:ce:fa:bb:ec:c2:0b:e6:c0:9a:5c:0f:3f:d6:
         c2:43:75:53
-----BEGIN CERTIFICATE-----
MIIDVTCCAj2gAwIBAgIQTTIAwHY2tXn6rbv2//R7wzANBgkqhkiG9w0BAQsFADAW
MRQwEgYDVQQDDAtFYXN5LVJTQSBDQTAeFw0yNTAzMDkxNjM5NDNaFw0yNzA2MTIx
NjM5NDNaMBIxEDAOBgNVBAMMB3Bob2VuaXgwggEiMA0GCSqGSIb3DQEBAQUAA4IB
DwAwggEKAoIBAQDGNSrSpLHOccpIEx/+vpEsHwSpEGCaG5kN7Hi3HNsdwht8MDn3
4puwWgv5Wg2e/9tJfmBIt0FjlQVqkr/YgJ+pt6GArgD7GirJpXNzZXJ1I17CAc3L
zy5lerjr5dJbccfKEkazAYqDG8TK7rLdXdY8/cM9BUAoKbRXzvC+CsrKiB+nCkvA
WtF/RdzRxFFLiy9OFnyW6b4AKuiRnW5NrZyURGCbHi5AumGCfx0yd/dHG9Pf6wlR
jQ4WwauTFX1WvV3rSXlcI4Y/YLoqfS5Vg3mbMR5S2UFCMDNCCHZGMJ4gMmnlgquo
GCnxt6GhTrxCleVXOsTJml7GxG59vEHFXVnrAgMBAAGjgaIwgZ8wCQYDVR0TBAIw
ADAdBgNVHQ4EFgQUnvRNK3X9yT4GfwxY7CESzCwx1akwUQYDVR0jBEowSIAUclNE
5Y60jByLYGx3YsFKnz3PUIShGqQYMBYxFDASBgNVBAMMC0Vhc3ktUlNBIENBghQQ
GmWLuTwYH9UwsLqGiU0ufEgGqTATBgNVHSUEDDAKBggrBgEFBQcDAjALBgNVHQ8E
BAMCB4AwDQYJKoZIhvcNAQELBQADggEBAHjFBt9c9ND8N61cTp0G8SxdCFU+euTK
TjK5zliF3FekW2w8EE/Sq7WKLMjMbsusgoGSWaeaJklMmoQN0oA92evKhUaXrc3R
djoXoR7MY9z2H2rYEVx9pcJHhLJJypdWtVowha/ZGVgs+Jc4noGNoFV4Q78m2V0x
oFtOpGTdA0Ud6vwPg6phST87bXlNeJNCUQNuOphNEJ8bPpGlO9iHQi76EaZYJgZF
dNoglh5zvaXkb7Dx/n9NLgWRTlL25KrW+46iBjyUJieziN+wel655M/i+Z95ctkH
ylzixsd5JM94JBn5iKROqENumKIAeeCzzvq77MIL5sCaXA8/1sJDdVM=
-----END CERTIFICATE-----
