Certificate:
    Data:
        Version: 3 (0x2)
        Serial Number:
            34:e5:f2:65:d4:f1:48:39:d0:d8:8d:0e:7d:dc:b3:70
        Signature Algorithm: sha256WithRSAEncryption
        Issuer: CN=Easy-RSA CA
        Validity
            Not Before: Mar  9 16:38:38 2025 GMT
            Not After : Jun 12 16:38:38 2027 GMT
        Subject: CN=127.0.0.1
        Subject Public Key Info:
            Public Key Algorithm: rsaEncryption
                RSA Public-Key: (2048 bit)
                Modulus:
                    00:c4:cd:57:3f:bb:e1:3e:90:e1:77:be:0c:2f:41:
                    43:71:d2:14:22:c1:be:6f:bf:36:89:9f:4e:a2:71:
                    28:79:b2:7e:8a:22:0f:65:50:a0:28:6a:7d:01:67:
                    56:25:99:17:6e:3c:01:eb:b1:82:53:f8:dc:8a:a0:
                    eb:5b:d1:53:17:d9:95:22:64:e7:0c:74:73:04:df:
                    91:43:67:75:d8:16:5e:75:77:10:46:76:e0:c2:2e:
                    67:b3:a5:06:f9:63:a9:cb:ce:dc:18:52:27:11:bf:
                    93:85:43:87:4c:e3:f4:ea:f7:97:04:52:90:cd:97:
                    b7:ce:a0:aa:8b:4c:38:19:d7:27:ce:2d:cc:96:08:
                    39:08:7c:9a:c8:4a:b3:5f:f1:ca:a5:d3:bf:d3:bd:
                    2f:48:2f:c9:b9:7b:c6:bf:68:28:2d:97:7c:02:38:
                    64:25:d4:5b:6e:15:99:21:38:21:9b:d7:a2:02:f3:
                    57:56:3a:22:af:cc:74:55:ea:53:76:cb:79:bb:9e:
                    d8:10:b8:75:e2:f7:bc:87:66:9a:69:02:ac:58:32:
                    d6:a1:48:c3:cf:83:f3:dc:5e:66:77:85:37:d3:5a:
                    bf:46:65:12:64:53:3c:15:00:74:26:82:73:00:b4:
                    dc:0f:39:a8:6d:2e:bf:25:2e:98:7b:be:c9:94:aa:
                    1e:a5
                Exponent: 65537 (0x10001)
        X509v3 extensions:
            X509v3 Basic Constraints: 
                CA:FALSE
            X509v3 Subject Key Identifier: 
                4C:D6:2A:C5:9D:11:A9:7D:25:0D:03:AE:24:19:96:F6:63:88:01:EC
            X509v3 Authority Key Identifier: 
                keyid:72:53:44:E5:8E:B4:8C:1C:8B:60:6C:77:62:C1:4A:9F:3D:CF:50:84
                DirName:/CN=Easy-RSA CA
                serial:10:1A:65:8B:B9:3C:18:1F:D5:30:B0:BA:86:89:4D:2E:7C:48:06:A9

            X509v3 Extended Key Usage: 
                TLS Web Server Authentication
            X509v3 Key Usage: 
                Digital Signature, Key Encipherment
            X509v3 Subject Alternative Name: 
                IP Address:127.0.0.1
    Signature Algorithm: sha256WithRSAEncryption
         16:71:3c:59:35:0a:50:d9:f5:b6:16:aa:20:2d:60:c2:e7:32:
         8a:f3:f0:8c:50:17:2b:4b:1c:65:b9:43:44:fc:03:6c:8e:04:
         aa:aa:34:c6:5a:fe:5c:e6:8f:6b:2f:22:83:6e:13:6a:06:d1:
         bc:63:db:d4:e3:cf:8b:20:8d:a9:1d:4f:2c:4b:d4:fa:88:6e:
         0b:46:64:45:d2:67:83:0e:3a:ec:f7:f6:b6:22:40:65:1d:ec:
         f6:8e:1f:72:59:b0:20:5f:81:b8:e0:03:55:a9:e4:a0:7b:5f:
         f5:64:a6:21:f3:9e:52:cc:e5:02:49:e0:30:ff:6b:06:d2:a2:
         61:40:67:0e:02:7b:ae:ef:5a:3b:06:d6:30:1a:9c:e5:10:9a:
         1c:bb:bd:6c:c6:c5:66:25:f0:6c:b3:1e:6b:51:ac:f9:57:b6:
         9d:9e:6e:01:6f:3f:c7:8f:d9:8b:5b:64:53:40:4b:cb:4a:05:
         31:62:97:12:0d:24:bb:ea:ee:cf:f8:21:84:53:5d:b4:0f:08:
         4b:9c:89:81:4a:d4:a0:03:e1:6a:f0:8b:f0:03:bb:d9:a7:59:
         a8:02:57:1a:20:a3:84:d5:94:09:d0:fc:5f:d4:c8:49:3a:cd:
         3e:58:96:c4:c3:dd:94:35:f5:24:e8:61:80:ec:f1:68:85:f5:
         a4:00:b0:0a
-----BEGIN CERTIFICATE-----
MIIDaDCCAlCgAwIBAgIQNOXyZdTxSDnQ2I0OfdyzcDANBgkqhkiG9w0BAQsFADAW
MRQwEgYDVQQDDAtFYXN5LVJTQSBDQTAeFw0yNTAzMDkxNjM4MzhaFw0yNzA2MTIx
NjM4MzhaMBQxEjAQBgNVBAMMCTEyNy4wLjAuMTCCASIwDQYJKoZIhvcNAQEBBQAD
ggEPADCCAQoCggEBAMTNVz+74T6Q4Xe+DC9BQ3HSFCLBvm+/NomfTqJxKHmyfooi
D2VQoChqfQFnViWZF248AeuxglP43Iqg61vRUxfZlSJk5wx0cwTfkUNnddgWXnV3
EEZ24MIuZ7OlBvljqcvO3BhSJxG/k4VDh0zj9Or3lwRSkM2Xt86gqotMOBnXJ84t
zJYIOQh8mshKs1/xyqXTv9O9L0gvybl7xr9oKC2XfAI4ZCXUW24VmSE4IZvXogLz
V1Y6Iq/MdFXqU3bLebue2BC4deL3vIdmmmkCrFgy1qFIw8+D89xeZneFN9Nav0Zl
EmRTPBUAdCaCcwC03A85qG0uvyUumHu+yZSqHqUCAwEAAaOBszCBsDAJBgNVHRME
AjAAMB0GA1UdDgQWBBRM1irFnRGpfSUNA64kGZb2Y4gB7DBRBgNVHSMESjBIgBRy
U0TljrSMHItgbHdiwUqfPc9QhKEapBgwFjEUMBIGA1UEAwwLRWFzeS1SU0EgQ0GC
FBAaZYu5PBgf1TCwuoaJTS58SAapMBMGA1UdJQQMMAoGCCsGAQUFBwMBMAsGA1Ud
DwQEAwIFoDAPBgNVHREECDAGhwR/AAABMA0GCSqGSIb3DQEBCwUAA4IBAQAWcTxZ
NQpQ2fW2FqogLWDC5zKK8/CMUBcrSxxluUNE/ANsjgSqqjTGWv5c5o9rLyKDbhNq
BtG8Y9vU48+LII2pHU8sS9T6iG4LRmRF0meDDjrs9/a2IkBlHez2jh9yWbAgX4G4
4ANVqeSge1/1ZKYh855SzOUCSeAw/2sG0qJhQGcOAnuu71o7BtYwGpzlEJocu71s
xsVmJfBssx5rUaz5V7adnm4Bbz/Hj9mLW2RTQEvLSgUxYpcSDSS76u7P+CGEU120
DwhLnImBStSgA+Fq8IvwA7vZp1moAlcaIKOE1ZQJ0Pxf1MhJOs0+WJbEw92UNfUk
6GGA7PFohfWkALAK
-----END CERTIFICATE-----
